target datalayout = "e-m:e-p270:32:32-p271:32:32-p272:64:64-i64:64-i128:128-f80:128-n8:16:32:64-S128"
target triple = "x86_64-pc-linux-gnu"

@.str = private unnamed_addr constant [34 x i8] c"../openssl/crypto/bio/bio_sock2.c\00", align 1
@.str.2 = private unnamed_addr constant [21 x i8] c"calling setsockopt()\00", align 1
@__func__.BIO_bind = private unnamed_addr constant [9 x i8] c"BIO_bind\00", align 1
@.str.4 = private unnamed_addr constant [15 x i8] c"calling bind()\00", align 1

; Function Attrs: nounwind uwtable
define i32 @BIO_bind(i32 noundef %0, ptr noundef %1, i32 noundef %2) #0 {
  %4 = alloca i32, align 4
  %5 = alloca i32, align 4
  %6 = alloca ptr, align 8
  %7 = alloca i32, align 4
  %8 = alloca i32, align 4
  %9 = alloca i32, align 4
  store i32 %0, ptr %5, align 4, !tbaa !3
  store ptr %1, ptr %6, align 8, !tbaa !7
  store i32 %2, ptr %7, align 4, !tbaa !3
  call void @llvm.lifetime.start.p0(i64 4, ptr %8) #5
  store i32 1, ptr %8, align 4, !tbaa !3
  %10 = load i32, ptr %5, align 4, !tbaa !3
  %11 = icmp eq i32 %10, -1
  br i1 %11, label %12, label %13

12:                                               ; preds = %3
  call void @ERR_new()
  call void @ERR_set_debug(ptr noundef @.str, i32 noundef 219, ptr noundef @__func__.BIO_bind)
  call void (i32, i32, ptr, ...) @ERR_set_error(i32 noundef 32, i32 noundef 135, ptr noundef null)
  store i32 0, ptr %4, align 4
  store i32 1, ptr %9, align 4
  br label %37

13:                                               ; preds = %3
  %14 = load i32, ptr %7, align 4, !tbaa !3
  %15 = and i32 %14, 1
  %16 = icmp ne i32 %15, 0
  br i1 %16, label %17, label %25

17:                                               ; preds = %13
  %18 = load i32, ptr %5, align 4, !tbaa !3
  %19 = call i32 @setsockopt(i32 noundef %18, i32 noundef 1, i32 noundef 2, ptr noundef %8, i32 noundef 4) #5
  %20 = icmp ne i32 %19, 0
  br i1 %20, label %21, label %24

21:                                               ; preds = %17
  call void @ERR_new()
  call void @ERR_set_debug(ptr noundef @.str, i32 noundef 231, ptr noundef @__func__.BIO_bind)
  %22 = call ptr @__errno_location() #6
  %23 = load i32, ptr %22, align 4, !tbaa !3
  call void (i32, i32, ptr, ...) @ERR_set_error(i32 noundef 2, i32 noundef %23, ptr noundef @.str.2)
  call void @ERR_new()
  call void @ERR_set_debug(ptr noundef @.str, i32 noundef 233, ptr noundef @__func__.BIO_bind)
  call void (i32, i32, ptr, ...) @ERR_set_error(i32 noundef 32, i32 noundef 139, ptr noundef null)
  store i32 0, ptr %4, align 4
  store i32 1, ptr %9, align 4
  br label %37

24:                                               ; preds = %17
  br label %25

25:                                               ; preds = %24, %13
  %26 = load i32, ptr %5, align 4, !tbaa !3
  %27 = load ptr, ptr %6, align 8, !tbaa !7
  %28 = call ptr @BIO_ADDR_sockaddr(ptr noundef %27)
  %29 = load ptr, ptr %6, align 8, !tbaa !7
  %30 = call i32 @BIO_ADDR_sockaddr_size(ptr noundef %29)
  %31 = call i32 @bind(i32 noundef %26, ptr noundef %28, i32 noundef %30) #5
  %32 = icmp ne i32 %31, 0
  br i1 %32, label %33, label %36

33:                                               ; preds = %25
  call void @ERR_new()
  call void @ERR_set_debug(ptr noundef @.str, i32 noundef 240, ptr noundef @__func__.BIO_bind)
  %34 = call ptr @__errno_location() #6
  %35 = load i32, ptr %34, align 4, !tbaa !3
  call void (i32, i32, ptr, ...) @ERR_set_error(i32 noundef 2, i32 noundef %35, ptr noundef @.str.4)
  call void @ERR_new()
  call void @ERR_set_debug(ptr noundef @.str, i32 noundef 242, ptr noundef @__func__.BIO_bind)
  call void (i32, i32, ptr, ...) @ERR_set_error(i32 noundef 32, i32 noundef 117, ptr noundef null)
  store i32 0, ptr %4, align 4
  store i32 1, ptr %9, align 4
  br label %37

36:                                               ; preds = %25
  store i32 1, ptr %4, align 4
  store i32 1, ptr %9, align 4
  br label %37

37:                                               ; preds = %36, %33, %21, %12
  call void @llvm.lifetime.end.p0(i64 4, ptr %8) #5
  %38 = load i32, ptr %4, align 4
  ret i32 %38
}