; Function Attrs: nounwind uwtable
define range(i32 0, 2) i32 @BIO_bind(i32 noundef %0, ptr noundef %1, i32 noundef %2) local_unnamed_addr #0 {
  %4 = alloca i32, align 4
  call void @llvm.lifetime.start.p0(i64 4, ptr nonnull %4) #5
  store i32 1, ptr %4, align 4, !tbaa !3
  %5 = icmp eq i32 %0, -1
  br i1 %5, label %6, label %7

6:                                                ; preds = %3
  tail call void @ERR_new() #5
  tail call void @ERR_set_debug(ptr noundef nonnull @.str, i32 noundef 219, ptr noundef nonnull @__func__.BIO_bind) #5
  tail call void (i32, i32, ptr, ...) @ERR_set_error(i32 noundef 32, i32 noundef 135, ptr noundef null) #5
  br label %21

7:                                                ; preds = %3
  %8 = and i32 %2, 1
  %.not = icmp eq i32 %8, 0
  br i1 %.not, label %14, label %9

9:                                                ; preds = %7
  %10 = call i32 @setsockopt(i32 noundef %0, i32 noundef 1, i32 noundef 2, ptr noundef nonnull %4, i32 noundef 4) #5
  %.not7 = icmp eq i32 %10, 0
  br i1 %.not7, label %14, label %11

11:                                               ; preds = %9
  call void @ERR_new() #5
  call void @ERR_set_debug(ptr noundef nonnull @.str, i32 noundef 231, ptr noundef nonnull @__func__.BIO_bind) #5
  %12 = tail call ptr @__errno_location() #6
  %13 = load i32, ptr %12, align 4, !tbaa !3
  call void (i32, i32, ptr, ...) @ERR_set_error(i32 noundef 2, i32 noundef %13, ptr noundef nonnull @.str.2) #5
  call void @ERR_new() #5
  call void @ERR_set_debug(ptr noundef nonnull @.str, i32 noundef 233, ptr noundef nonnull @__func__.BIO_bind) #5
  call void (i32, i32, ptr, ...) @ERR_set_error(i32 noundef 32, i32 noundef 139, ptr noundef null) #5
  br label %21

14:                                               ; preds = %9, %7
  %15 = call ptr @BIO_ADDR_sockaddr(ptr noundef %1) #5
  %16 = call i32 @BIO_ADDR_sockaddr_size(ptr noundef %1) #5
  %17 = call i32 @bind(i32 noundef %0, ptr noundef %15, i32 noundef %16) #5
  %.not8 = icmp eq i32 %17, 0
  br i1 %.not8, label %21, label %18

18:                                               ; preds = %14
  call void @ERR_new() #5
  call void @ERR_set_debug(ptr noundef nonnull @.str, i32 noundef 240, ptr noundef nonnull @__func__.BIO_bind) #5
  %19 = tail call ptr @__errno_location() #6
  %20 = load i32, ptr %19, align 4, !tbaa !3
  call void (i32, i32, ptr, ...) @ERR_set_error(i32 noundef 2, i32 noundef %20, ptr noundef nonnull @.str.4) #5
  call void @ERR_new() #5
  call void @ERR_set_debug(ptr noundef nonnull @.str, i32 noundef 242, ptr noundef nonnull @__func__.BIO_bind) #5
  call void (i32, i32, ptr, ...) @ERR_set_error(i32 noundef 32, i32 noundef 117, ptr noundef null) #5
  br label %21

21:                                               ; preds = %14, %18, %11, %6
  %.0 = phi i32 [ 0, %6 ], [ 0, %11 ], [ 0, %18 ], [ 1, %14 ]
  call void @llvm.lifetime.end.p0(i64 4, ptr nonnull %4) #5
  ret i32 %.0
}